target datalayout = "e-m:e-p270:32:32-p271:32:32-p272:64:64-i64:64-i128:128-f80:128-n8:16:32:64-S128"
target triple = "x86_64-pc-linux-gnu"

%struct.pkcs7_st = type { ptr, i64, i32, i32, ptr, %union.anon, %struct.PKCS7_CTX_st }
%union.anon = type { ptr }
%struct.PKCS7_CTX_st = type { ptr, ptr }
%struct.asn1_type_st = type { i32, %union.anon.0 }
%union.anon.0 = type { ptr }
%struct.asn1_string_st = type { i32, i32, ptr, i64 }

; Function Attrs: nounwind uwtable
define i32 @PKCS7_type_is_other(ptr noundef %0) #0 {
  %2 = alloca ptr, align 8
  %3 = alloca i32, align 4
  %4 = alloca i32, align 4
  store ptr %0, ptr %2, align 8, !tbaa !3
  call void @llvm.lifetime.start.p0(i64 4, ptr %3) #5
  store i32 1, ptr %3, align 4, !tbaa !8
  call void @llvm.lifetime.start.p0(i64 4, ptr %4) #5
  %5 = load ptr, ptr %2, align 8, !tbaa !3
  %6 = getelementptr inbounds nuw %struct.pkcs7_st, ptr %5, i32 0, i32 4
  %7 = load ptr, ptr %6, align 8, !tbaa !10
  %8 = call i32 @OBJ_obj2nid(ptr noundef %7)
  store i32 %8, ptr %4, align 4, !tbaa !8
  %9 = load i32, ptr %4, align 4, !tbaa !8
  switch i32 %9, label %11 [
    i32 21, label %10
    i32 22, label %10
    i32 23, label %10
    i32 24, label %10
    i32 25, label %10
    i32 26, label %10
  ]

10:                                               ; preds = %1, %1, %1, %1, %1, %1
  store i32 0, ptr %3, align 4, !tbaa !8
  br label %12

11:                                               ; preds = %1
  store i32 1, ptr %3, align 4, !tbaa !8
  br label %12

12:                                               ; preds = %11, %10
  %13 = load i32, ptr %3, align 4, !tbaa !8
  call void @llvm.lifetime.end.p0(i64 4, ptr %4) #5
  call void @llvm.lifetime.end.p0(i64 4, ptr %3) #5
  ret i32 %13
}

; Function Attrs: nounwind uwtable
define ptr @PKCS7_get_octet_string(ptr noundef %0) #0 {
  %2 = alloca ptr, align 8
  %3 = alloca ptr, align 8
  store ptr %0, ptr %3, align 8, !tbaa !3
  %4 = load ptr, ptr %3, align 8, !tbaa !3
  %5 = getelementptr inbounds nuw %struct.pkcs7_st, ptr %4, i32 0, i32 4
  %6 = load ptr, ptr %5, align 8, !tbaa !10
  %7 = call i32 @OBJ_obj2nid(ptr noundef %6)
  %8 = icmp eq i32 %7, 21
  br i1 %8, label %9, label %13

9:                                                ; preds = %1
  %10 = load ptr, ptr %3, align 8, !tbaa !3
  %11 = getelementptr inbounds nuw %struct.pkcs7_st, ptr %10, i32 0, i32 5
  %12 = load ptr, ptr %11, align 8, !tbaa !17
  store ptr %12, ptr %2, align 8
  br label %36

13:                                               ; preds = %1
  %14 = load ptr, ptr %3, align 8, !tbaa !3
  %15 = call i32 @PKCS7_type_is_other(ptr noundef %14)
  %16 = icmp ne i32 %15, 0
  br i1 %16, label %17, label %35

17:                                               ; preds = %13
  %18 = load ptr, ptr %3, align 8, !tbaa !3
  %19 = getelementptr inbounds nuw %struct.pkcs7_st, ptr %18, i32 0, i32 5
  %20 = load ptr, ptr %19, align 8, !tbaa !17
  %21 = icmp ne ptr %20, null
  br i1 %21, label %22, label %35

22:                                               ; preds = %17
  %23 = load ptr, ptr %3, align 8, !tbaa !3
  %24 = getelementptr inbounds nuw %struct.pkcs7_st, ptr %23, i32 0, i32 5
  %25 = load ptr, ptr %24, align 8, !tbaa !17
  %26 = getelementptr inbounds nuw %struct.asn1_type_st, ptr %25, i32 0, i32 0
  %27 = load i32, ptr %26, align 8, !tbaa !18
  %28 = icmp eq i32 %27, 4
  br i1 %28, label %29, label %35

29:                                               ; preds = %22
  %30 = load ptr, ptr %3, align 8, !tbaa !3
  %31 = getelementptr inbounds nuw %struct.pkcs7_st, ptr %30, i32 0, i32 5
  %32 = load ptr, ptr %31, align 8, !tbaa !17
  %33 = getelementptr inbounds nuw %struct.asn1_type_st, ptr %32, i32 0, i32 1
  %34 = load ptr, ptr %33, align 8, !tbaa !17
  store ptr %34, ptr %2, align 8
  br label %36

35:                                               ; preds = %22, %17, %13
  store ptr null, ptr %2, align 8
  br label %36

36:                                               ; preds = %35, %29, %9
  %37 = load ptr, ptr %2, align 8
  ret ptr %37
}

; Function Attrs: nounwind uwtable
define internal ptr @pkcs7_get1_data(ptr noundef %0) #0 {
  %2 = alloca ptr, align 8
  %3 = alloca ptr, align 8
  %4 = alloca ptr, align 8
  %5 = alloca ptr, align 8
  %6 = alloca i32, align 4
  %7 = alloca ptr, align 8
  %8 = alloca i64, align 8
  %9 = alloca i32, align 4
  %10 = alloca i32, align 4
  %11 = alloca i32, align 4
  store ptr %0, ptr %3, align 8, !tbaa !3
  call void @llvm.lifetime.start.p0(i64 8, ptr %4) #5
  %12 = load ptr, ptr %3, align 8, !tbaa !3
  %13 = call ptr @PKCS7_get_octet_string(ptr noundef %12)
  store ptr %13, ptr %4, align 8, !tbaa !32
  %14 = load ptr, ptr %4, align 8, !tbaa !32
  %15 = icmp ne ptr %14, null
  br i1 %15, label %16, label %31

16:                                               ; preds = %1
  call void @llvm.lifetime.start.p0(i64 8, ptr %5) #5
  %17 = load ptr, ptr %4, align 8, !tbaa !32
  %18 = call ptr @ASN1_OCTET_STRING_dup(ptr noundef %17)
  store ptr %18, ptr %5, align 8, !tbaa !32
  %19 = load ptr, ptr %5, align 8, !tbaa !32
  %20 = icmp ne ptr %19, null
  br i1 %20, label %21, label %29

21:                                               ; preds = %16
  %22 = load ptr, ptr %4, align 8, !tbaa !32
  %23 = getelementptr inbounds nuw %struct.asn1_string_st, ptr %22, i32 0, i32 3
  %24 = load i64, ptr %23, align 8, !tbaa !71
  %25 = and i64 %24, 16
  %26 = icmp ne i64 %25, 0
  br i1 %26, label %27, label %29

27:                                               ; preds = %21
  %28 = load ptr, ptr %5, align 8, !tbaa !32
  call void @ASN1_STRING_set0(ptr noundef %28, ptr noundef null, i32 noundef 0)
  br label %29

29:                                               ; preds = %27, %21, %16
  %30 = load ptr, ptr %5, align 8, !tbaa !32
  store ptr %30, ptr %2, align 8
  store i32 1, ptr %6, align 4
  call void @llvm.lifetime.end.p0(i64 8, ptr %5) #5
  br label %105

31:                                               ; preds = %1
  %32 = load ptr, ptr %3, align 8, !tbaa !3
  %33 = call i32 @PKCS7_type_is_other(ptr noundef %32)
  %34 = icmp ne i32 %33, 0
  br i1 %34, label %35, label %103

35:                                               ; preds = %31
  %36 = load ptr, ptr %3, align 8, !tbaa !3
  %37 = getelementptr inbounds nuw %struct.pkcs7_st, ptr %36, i32 0, i32 5
  %38 = load ptr, ptr %37, align 8, !tbaa !17
  %39 = icmp ne ptr %38, null
  br i1 %39, label %40, label %103

40:                                               ; preds = %35
  %41 = load ptr, ptr %3, align 8, !tbaa !3
  %42 = getelementptr inbounds nuw %struct.pkcs7_st, ptr %41, i32 0, i32 5
  %43 = load ptr, ptr %42, align 8, !tbaa !17
  %44 = getelementptr inbounds nuw %struct.asn1_type_st, ptr %43, i32 0, i32 0
  %45 = load i32, ptr %44, align 8, !tbaa !18
  %46 = icmp eq i32 %45, 16
  br i1 %46, label %47, label %103

47:                                               ; preds = %40
  %48 = load ptr, ptr %3, align 8, !tbaa !3
  %49 = getelementptr inbounds nuw %struct.pkcs7_st, ptr %48, i32 0, i32 5
  %50 = load ptr, ptr %49, align 8, !tbaa !17
  %51 = getelementptr inbounds nuw %struct.asn1_type_st, ptr %50, i32 0, i32 1
  %52 = load ptr, ptr %51, align 8, !tbaa !17
  %53 = icmp ne ptr %52, null
  br i1 %53, label %54, label %103

54:                                               ; preds = %47
  %55 = load ptr, ptr %3, align 8, !tbaa !3
  %56 = getelementptr inbounds nuw %struct.pkcs7_st, ptr %55, i32 0, i32 5
  %57 = load ptr, ptr %56, align 8, !tbaa !17
  %58 = getelementptr inbounds nuw %struct.asn1_type_st, ptr %57, i32 0, i32 1
  %59 = load ptr, ptr %58, align 8, !tbaa !17
  %60 = getelementptr inbounds nuw %struct.asn1_string_st, ptr %59, i32 0, i32 0
  %61 = load i32, ptr %60, align 8, !tbaa !68
  %62 = icmp sgt i32 %61, 0
  br i1 %62, label %63, label %103

63:                                               ; preds = %54
  call void @llvm.lifetime.start.p0(i64 8, ptr %7) #5
  %64 = load ptr, ptr %3, align 8, !tbaa !3
  %65 = getelementptr inbounds nuw %struct.pkcs7_st, ptr %64, i32 0, i32 5
  %66 = load ptr, ptr %65, align 8, !tbaa !17
  %67 = getelementptr inbounds nuw %struct.asn1_type_st, ptr %66, i32 0, i32 1
  %68 = load ptr, ptr %67, align 8, !tbaa !17
  %69 = getelementptr inbounds nuw %struct.asn1_string_st, ptr %68, i32 0, i32 2
  %70 = load ptr, ptr %69, align 8, !tbaa !70
  store ptr %70, ptr %7, align 8, !tbaa !37
  call void @llvm.lifetime.start.p0(i64 8, ptr %8) #5
  call void @llvm.lifetime.start.p0(i64 4, ptr %9) #5
  call void @llvm.lifetime.start.p0(i64 4, ptr %10) #5
  call void @llvm.lifetime.start.p0(i64 4, ptr %11) #5
  %71 = call ptr @ASN1_OCTET_STRING_new()
  store ptr %71, ptr %4, align 8, !tbaa !32
  %72 = load ptr, ptr %4, align 8, !tbaa !32
  %73 = icmp eq ptr %72, null
  br i1 %73, label %74, label %75

74:                                               ; preds = %63
  store ptr null, ptr %2, align 8
  store i32 1, ptr %6, align 4
  br label %100

75:                                               ; preds = %63
  %76 = load ptr, ptr %3, align 8, !tbaa !3
  %77 = getelementptr inbounds nuw %struct.pkcs7_st, ptr %76, i32 0, i32 5
  %78 = load ptr, ptr %77, align 8, !tbaa !17
  %79 = getelementptr inbounds nuw %struct.asn1_type_st, ptr %78, i32 0, i32 1
  %80 = load ptr, ptr %79, align 8, !tbaa !17
  %81 = getelementptr inbounds nuw %struct.asn1_string_st, ptr %80, i32 0, i32 0
  %82 = load i32, ptr %81, align 8, !tbaa !68
  %83 = sext i32 %82 to i64
  %84 = call i32 @ASN1_get_object(ptr noundef %7, ptr noundef %8, ptr noundef %10, ptr noundef %11, i64 noundef %83)
  store i32 %84, ptr %9, align 4, !tbaa !8
  %85 = load i32, ptr %9, align 4, !tbaa !8
  %86 = icmp ne i32 %85, 32
  br i1 %86, label %97, label %87

87:                                               ; preds = %75
  %88 = load i32, ptr %10, align 4, !tbaa !8
  %89 = icmp ne i32 %88, 16
  br i1 %89, label %97, label %90

90:                                               ; preds = %87
  %91 = load ptr, ptr %4, align 8, !tbaa !32
  %92 = load ptr, ptr %7, align 8, !tbaa !37
  %93 = load i64, ptr %8, align 8, !tbaa !72
  %94 = trunc i64 %93 to i32
  %95 = call i32 @ASN1_OCTET_STRING_set(ptr noundef %91, ptr noundef %92, i32 noundef %94)
  %96 = icmp ne i32 %95, 0
  br i1 %96, label %99, label %97

97:                                               ; preds = %90, %87, %75
  %98 = load ptr, ptr %4, align 8, !tbaa !32
  call void @ASN1_OCTET_STRING_free(ptr noundef %98)
  store ptr null, ptr %4, align 8, !tbaa !32
  br label %99

99:                                               ; preds = %97, %90
  store i32 0, ptr %6, align 4
  br label %100

100:                                              ; preds = %99, %74
  call void @llvm.lifetime.end.p0(i64 4, ptr %11) #5
  call void @llvm.lifetime.end.p0(i64 4, ptr %10) #5
  call void @llvm.lifetime.end.p0(i64 4, ptr %9) #5
  call void @llvm.lifetime.end.p0(i64 8, ptr %8) #5
  call void @llvm.lifetime.end.p0(i64 8, ptr %7) #5
  %101 = load i32, ptr %6, align 4
  switch i32 %101, label %105 [
    i32 0, label %102
  ]

102:                                              ; preds = %100
  br label %103

103:                                              ; preds = %102, %54, %47, %40, %35, %31
  %104 = load ptr, ptr %4, align 8, !tbaa !32
  store ptr %104, ptr %2, align 8
  store i32 1, ptr %6, align 4
  br label %105

105:                                              ; preds = %103, %100, %29
  call void @llvm.lifetime.end.p0(i64 8, ptr %4) #5
  %106 = load ptr, ptr %2, align 8
  ret ptr %106
}