; Function Attrs: nounwind uwtable
define internal fastcc ptr @pkcs7_get1_data(ptr noundef readonly captures(none) %0) unnamed_addr #0 {
  %2 = alloca ptr, align 8
  %3 = alloca i64, align 8
  %4 = alloca i32, align 4
  %5 = alloca i32, align 4
  %6 = getelementptr inbounds nuw i8, ptr %0, i64 24
  %7 = load ptr, ptr %6, align 8, !tbaa !3
  %8 = tail call i32 @OBJ_obj2nid(ptr noundef %7) #4
  %9 = icmp eq i32 %8, 21
  br i1 %9, label %10, label %12

10:                                               ; preds = %1
  %11 = getelementptr inbounds nuw i8, ptr %0, i64 32
  br label %PKCS7_get_octet_string.exit

12:                                               ; preds = %1
  %13 = load ptr, ptr %6, align 8, !tbaa !3
  %14 = tail call i32 @OBJ_obj2nid(ptr noundef %13) #4
  %15 = add i32 %14, -21
  %switch.i.i = icmp ult i32 %15, 6
  br i1 %switch.i.i, label %PKCS7_get_octet_string.exit.thread, label %16

16:                                               ; preds = %12
  %17 = getelementptr inbounds nuw i8, ptr %0, i64 32
  %18 = load ptr, ptr %17, align 8, !tbaa !14
  %.not8.i = icmp eq ptr %18, null
  br i1 %.not8.i, label %PKCS7_get_octet_string.exit.thread, label %19

19:                                               ; preds = %16
  %20 = load i32, ptr %18, align 8, !tbaa !15
  %21 = icmp eq i32 %20, 4
  br i1 %21, label %22, label %PKCS7_get_octet_string.exit.thread

22:                                               ; preds = %19
  %23 = getelementptr inbounds nuw i8, ptr %18, i64 8
  br label %PKCS7_get_octet_string.exit

PKCS7_get_octet_string.exit:                      ; preds = %10, %22
  %.0.i.in = phi ptr [ %11, %10 ], [ %23, %22 ]
  %.0.i = load ptr, ptr %.0.i.in, align 8, !tbaa !14
  %.not = icmp eq ptr %.0.i, null
  br i1 %.not, label %PKCS7_get_octet_string.exit.thread, label %24

24:                                               ; preds = %PKCS7_get_octet_string.exit
  %25 = tail call ptr @ASN1_OCTET_STRING_dup(ptr noundef nonnull %.0.i) #4
  %.not35 = icmp eq ptr %25, null
  br i1 %.not35, label %67, label %26

26:                                               ; preds = %24
  %27 = getelementptr inbounds nuw i8, ptr %.0.i, i64 16
  %28 = load i64, ptr %27, align 8, !tbaa !65
  %29 = and i64 %28, 16
  %.not36 = icmp eq i64 %29, 0
  br i1 %.not36, label %67, label %30

30:                                               ; preds = %26
  tail call void @ASN1_STRING_set0(ptr noundef nonnull %25, ptr noundef null, i32 noundef 0) #4
  br label %67

PKCS7_get_octet_string.exit.thread:               ; preds = %12, %16, %19, %PKCS7_get_octet_string.exit
  %31 = load ptr, ptr %6, align 8, !tbaa !3
  %32 = tail call i32 @OBJ_obj2nid(ptr noundef %31) #4
  %33 = add i32 %32, -21
  %switch.i = icmp ult i32 %33, 6
  br i1 %switch.i, label %67, label %34

34:                                               ; preds = %PKCS7_get_octet_string.exit.thread
  %35 = getelementptr inbounds nuw i8, ptr %0, i64 32
  %36 = load ptr, ptr %35, align 8, !tbaa !14
  %.not31 = icmp eq ptr %36, null
  br i1 %.not31, label %67, label %37

37:                                               ; preds = %34
  %38 = load i32, ptr %36, align 8, !tbaa !15
  %39 = icmp eq i32 %38, 16
  br i1 %39, label %40, label %67

40:                                               ; preds = %37
  %41 = getelementptr inbounds nuw i8, ptr %36, i64 8
  %42 = load ptr, ptr %41, align 8, !tbaa !14
  %.not32 = icmp eq ptr %42, null
  br i1 %.not32, label %67, label %43

43:                                               ; preds = %40
  %44 = load i32, ptr %42, align 8, !tbaa !62
  %45 = icmp sgt i32 %44, 0
  br i1 %45, label %46, label %67

46:                                               ; preds = %43
  call void @llvm.lifetime.start.p0(i64 8, ptr nonnull %2) #4
  %47 = getelementptr inbounds nuw i8, ptr %42, i64 8
  %48 = load ptr, ptr %47, align 8, !tbaa !64
  store ptr %48, ptr %2, align 8, !tbaa !66
  call void @llvm.lifetime.start.p0(i64 8, ptr nonnull %3) #4
  call void @llvm.lifetime.start.p0(i64 4, ptr nonnull %4) #4
  call void @llvm.lifetime.start.p0(i64 4, ptr nonnull %5) #4
  %49 = tail call ptr @ASN1_OCTET_STRING_new() #4
  %.not34 = icmp eq ptr %49, null
  br i1 %.not34, label %66, label %50

50:                                               ; preds = %46
  %51 = load ptr, ptr %35, align 8, !tbaa !14
  %52 = getelementptr inbounds nuw i8, ptr %51, i64 8
  %53 = load ptr, ptr %52, align 8, !tbaa !14
  %54 = load i32, ptr %53, align 8, !tbaa !62
  %55 = sext i32 %54 to i64
  %56 = call i32 @ASN1_get_object(ptr noundef nonnull %2, ptr noundef nonnull %3, ptr noundef nonnull %4, ptr noundef nonnull %5, i64 noundef %55) #4
  %57 = icmp ne i32 %56, 32
  %58 = load i32, ptr %4, align 4
  %59 = icmp ne i32 %58, 16
  %or.cond = select i1 %57, i1 true, i1 %59
  br i1 %or.cond, label %65, label %60

60:                                               ; preds = %50
  %61 = load ptr, ptr %2, align 8, !tbaa !66
  %62 = load i64, ptr %3, align 8, !tbaa !59
  %63 = trunc i64 %62 to i32
  %64 = call i32 @ASN1_OCTET_STRING_set(ptr noundef nonnull %49, ptr noundef %61, i32 noundef %63) #4
  %.not33 = icmp eq i32 %64, 0
  br i1 %.not33, label %65, label %66

65:                                               ; preds = %60, %50
  call void @ASN1_OCTET_STRING_free(ptr noundef nonnull %49) #4
  br label %66

66:                                               ; preds = %60, %65, %46
  %spec.select = phi ptr [ null, %46 ], [ null, %65 ], [ %49, %60 ]
  call void @llvm.lifetime.end.p0(i64 4, ptr nonnull %5) #4
  call void @llvm.lifetime.end.p0(i64 4, ptr nonnull %4) #4
  call void @llvm.lifetime.end.p0(i64 8, ptr nonnull %3) #4
  call void @llvm.lifetime.end.p0(i64 8, ptr nonnull %2) #4
  br label %67

67:                                               ; preds = %66, %PKCS7_get_octet_string.exit.thread, %34, %37, %40, %43, %24, %26, %30
  %.0 = phi ptr [ %25, %30 ], [ %25, %26 ], [ null, %24 ], [ null, %43 ], [ null, %40 ], [ null, %37 ], [ null, %34 ], [ null, %PKCS7_get_octet_string.exit.thread ], [ %spec.select, %66 ]
  ret ptr %.0
}